target datalayout = "e-m:e-p270:32:32-p271:32:32-p272:64:64-i64:64-i128:128-f80:128-n8:16:32:64-S128"
target triple = "x86_64-pc-linux-gnu"

%struct.JavaVMOption = type { ptr, ptr }
%class.JVMFlagLimit = type { i16, i8, i8 }

@.str.60 = private unnamed_addr constant [60 x i8] c"The specified size exceeds the maximum representable size.\0A\00", align 1
@g_assert_poison = external global ptr, align 8
@.str.61 = private unnamed_addr constant [40 x i8] c"src/hotspot/share/runtime/arguments.cpp\00", align 1
@.str.118 = private unnamed_addr constant [31 x i8] c"Invalid thread stack size: %s\0A\00", align 1
@DisplayVMOutputToStdout = external global i8, align 1
@_ZN13defaultStream14_output_streamE = external global ptr, align 8
@_ZN13defaultStream13_error_streamE = external global ptr, align 8
@_ZN6OSInfo13_vm_page_sizeE = external global i64, align 8
@_ZN12JVMFlagLimit13_last_checkedE = external global i32, align 4
@_ZN12JVMFlagLimit10flagLimitsE = external global ptr, align 8

; Function Attrs: mustprogress nounwind uwtable
define linkonce_odr hidden void @_ZN7JVMFlag22assert_valid_flag_enumE12JVMFlagsEnum(i32 noundef %0) #1 comdat align 2 {
  %2 = alloca i32, align 4
  store i32 %0, ptr %2, align 4
  ret void
}

; Function Attrs: mustprogress nounwind uwtable
define linkonce_odr hidden noundef ptr @_ZN12JVMFlagLimit2atE12JVMFlagsEnum(i32 noundef %0) #1 comdat align 2 {
  %2 = alloca i32, align 4
  store i32 %0, ptr %2, align 4
  %3 = load i32, ptr %2, align 4
  call void @_ZN7JVMFlag22assert_valid_flag_enumE12JVMFlagsEnum(i32 noundef %3)
  %4 = load ptr, ptr @_ZN12JVMFlagLimit10flagLimitsE, align 8
  %5 = load i32, ptr %2, align 4
  %6 = sext i32 %5 to i64
  %7 = getelementptr inbounds ptr, ptr %4, i64 %6
  %8 = load ptr, ptr %7, align 8
  ret ptr %8
}

; Function Attrs: mustprogress nounwind uwtable
define linkonce_odr hidden noundef i64 @_ZN6OSInfo12vm_page_sizeEv() #1 comdat align 2 {
  %1 = load i64, ptr @_ZN6OSInfo13_vm_page_sizeE, align 8
  ret i64 %1
}

; Function Attrs: mustprogress nounwind uwtable
define linkonce_odr hidden noundef i64 @_Z10align_downImmTnNSt9enable_ifIXcvbsr3std11is_integralIT_EE5valueEiE4typeELi0EES1_S1_T0_(i64 noundef %0, i64 noundef %1) #1 comdat {
  %3 = alloca i64, align 8
  %4 = alloca i64, align 8
  %5 = alloca i64, align 8
  store i64 %0, ptr %3, align 8
  store i64 %1, ptr %4, align 8
  %6 = load i64, ptr %3, align 8
  %7 = load i64, ptr %4, align 8
  %8 = call noundef i64 @_ZL14alignment_maskImTnNSt9enable_ifIXcvbsr3std11is_integralIT_EE5valueEiE4typeELi0EES1_S1_(i64 noundef %7)
  %9 = xor i64 %8, -1
  %10 = and i64 %6, %9
  store i64 %10, ptr %5, align 8
  %11 = load i64, ptr %5, align 8
  ret i64 %11
}

; Function Attrs: mustprogress nounwind uwtable
define linkonce_odr hidden noundef i64 @_Z12checked_castImmET_T0_(i64 noundef %0) #1 comdat {
  %2 = alloca i64, align 8
  %3 = alloca i64, align 8
  store i64 %0, ptr %2, align 8
  %4 = load i64, ptr %2, align 8
  store i64 %4, ptr %3, align 8
  %5 = load i64, ptr %3, align 8
  ret i64 %5
}

; Function Attrs: mustprogress nounwind uwtable
define internal noundef i64 @_ZL14alignment_maskImTnNSt9enable_ifIXcvbsr3std11is_integralIT_EE5valueEiE4typeELi0EES1_S1_(i64 noundef %0) #1 {
  %2 = alloca i64, align 8
  store i64 %0, ptr %2, align 8
  %3 = load i64, ptr %2, align 8
  %4 = sub i64 %3, 1
  ret i64 %4
}

; Function Attrs: mustprogress nounwind uwtable
define hidden noundef i32 @_ZN9Arguments17check_memory_sizeEmmm(i64 noundef %0, i64 noundef %1, i64 noundef %2) #1 align 2 {
  %4 = alloca i32, align 4
  %5 = alloca i64, align 8
  %6 = alloca i64, align 8
  %7 = alloca i64, align 8
  store i64 %0, ptr %5, align 8
  store i64 %1, ptr %6, align 8
  store i64 %2, ptr %7, align 8
  %8 = load i64, ptr %5, align 8
  %9 = load i64, ptr %6, align 8
  %10 = icmp ult i64 %8, %9
  br i1 %10, label %11, label %12

11:                                               ; preds = %3
  store i32 -2, ptr %4, align 4
  br label %18

12:                                               ; preds = %3
  %13 = load i64, ptr %5, align 8
  %14 = load i64, ptr %7, align 8
  %15 = icmp ugt i64 %13, %14
  br i1 %15, label %16, label %17

16:                                               ; preds = %12
  store i32 -1, ptr %4, align 4
  br label %18

17:                                               ; preds = %12
  store i32 0, ptr %4, align 4
  br label %18

18:                                               ; preds = %17, %16, %11
  %19 = load i32, ptr %4, align 4
  ret i32 %19
}

; Function Attrs: mustprogress nounwind uwtable
define linkonce_odr hidden noundef ptr @_ZN12JVMFlagLimit11get_kind_atE12JVMFlagsEnumi(i32 noundef %0, i32 noundef %1) #1 comdat align 2 {
  %3 = alloca ptr, align 8
  %4 = alloca i32, align 4
  %5 = alloca i32, align 4
  %6 = alloca ptr, align 8
  store i32 %0, ptr %4, align 4
  store i32 %1, ptr %5, align 4
  %7 = load i32, ptr %4, align 4
  %8 = call noundef ptr @_ZN12JVMFlagLimit2atE12JVMFlagsEnum(i32 noundef %7)
  store ptr %8, ptr %6, align 8
  %9 = load ptr, ptr %6, align 8
  %10 = icmp ne ptr %9, null
  br i1 %10, label %11, label %22

11:                                               ; preds = %2
  %12 = load ptr, ptr %6, align 8
  %13 = getelementptr inbounds %class.JVMFlagLimit, ptr %12, i32 0, i32 2
  %14 = load i8, ptr %13, align 1
  %15 = sext i8 %14 to i32
  %16 = load i32, ptr %5, align 4
  %17 = and i32 %15, %16
  %18 = icmp ne i32 %17, 0
  br i1 %18, label %19, label %22

19:                                               ; preds = %11
  %20 = load i32, ptr %4, align 4
  store i32 %20, ptr @_ZN12JVMFlagLimit13_last_checkedE, align 4
  %21 = load ptr, ptr %6, align 8
  store ptr %21, ptr %3, align 8
  br label %23

22:                                               ; preds = %11, %2
  store ptr null, ptr %3, align 8
  br label %23

23:                                               ; preds = %22, %19
  %24 = load ptr, ptr %3, align 8
  ret ptr %24
}

; Function Attrs: mustprogress nounwind uwtable
define linkonce_odr hidden noundef i64 @_ZN2os12vm_page_sizeEv() #1 comdat align 2 {
  %1 = call noundef i64 @_ZN6OSInfo12vm_page_sizeEv()
  ret i64 %1
}

; Function Attrs: mustprogress nounwind uwtable
define linkonce_odr hidden noundef i64 @_Z8align_upImmTnNSt9enable_ifIXcvbsr3std11is_integralIT_EE5valueEiE4typeELi0EES1_S1_T0_(i64 noundef %0, i64 noundef %1) #1 comdat {
  %3 = alloca i64, align 8
  %4 = alloca i64, align 8
  %5 = alloca i64, align 8
  store i64 %0, ptr %3, align 8
  store i64 %1, ptr %4, align 8
  %6 = load i64, ptr %3, align 8
  %7 = load i64, ptr %4, align 8
  %8 = call noundef i64 @_ZL14alignment_maskImTnNSt9enable_ifIXcvbsr3std11is_integralIT_EE5valueEiE4typeELi0EES1_S1_(i64 noundef %7)
  %9 = add i64 %6, %8
  %10 = call noundef i64 @_Z12checked_castImmET_T0_(i64 noundef %9)
  store i64 %10, ptr %5, align 8
  %11 = load i64, ptr %5, align 8
  %12 = load i64, ptr %4, align 8
  %13 = call noundef i64 @_Z10align_downImmTnNSt9enable_ifIXcvbsr3std11is_integralIT_EE5valueEiE4typeELi0EES1_S1_T0_(i64 noundef %11, i64 noundef %12)
  ret i64 %13
}

; Function Attrs: mustprogress nounwind uwtable
define hidden void @_ZN9Arguments20describe_range_errorENS_9ArgsRangeE(i32 noundef %0) #1 align 2 {
  %2 = alloca i32, align 4
  store i32 %0, ptr %2, align 4
  %3 = load i32, ptr %2, align 4
  switch i32 %3, label %8 [
    i32 -1, label %4
    i32 -2, label %7
    i32 -3, label %7
    i32 0, label %7
  ]

4:                                                ; preds = %1
  %5 = call noundef ptr @_ZN13defaultStream12error_streamEv()
  %6 = call i32 (ptr, ptr, ...) @jio_fprintf(ptr noundef %5, ptr noundef @.str.60)
  br label %12

7:                                                ; preds = %1, %1, %1
  br label %12

8:                                                ; preds = %1
  br label %9

9:                                                ; preds = %8
  %10 = load ptr, ptr @g_assert_poison, align 8
  store i8 88, ptr %10, align 1
  call void @_Z28report_should_not_reach_herePKci(ptr noundef @.str.61, i32 noundef 742) #14
  unreachable

11:                                               ; No predecessors!
  br label %12

12:                                               ; preds = %11, %7, %4
  ret void
}

; Function Attrs: mustprogress nounwind uwtable
define linkonce_odr hidden noundef ptr @_ZN13defaultStream12error_streamEv() #1 comdat align 2 {
  %1 = load i8, ptr @DisplayVMOutputToStdout, align 1
  %2 = trunc i8 %1 to i1
  br i1 %2, label %3, label %5

3:                                                ; preds = %0
  %4 = load ptr, ptr @_ZN13defaultStream14_output_streamE, align 8
  br label %7

5:                                                ; preds = %0
  %6 = load ptr, ptr @_ZN13defaultStream13_error_streamE, align 8
  br label %7

7:                                                ; preds = %5, %3
  %8 = phi ptr [ %4, %3 ], [ %6, %5 ]
  ret ptr %8
}

; Function Attrs: mustprogress nounwind uwtable
define hidden noundef i32 @_ZN9Arguments17parse_memory_sizeEPKcPmmm(ptr noundef %0, ptr noundef %1, i64 noundef %2, i64 noundef %3) #1 align 2 {
  %5 = alloca i32, align 4
  %6 = alloca ptr, align 8
  %7 = alloca ptr, align 8
  %8 = alloca i64, align 8
  %9 = alloca i64, align 8
  store ptr %0, ptr %6, align 8
  store ptr %1, ptr %7, align 8
  store i64 %2, ptr %8, align 8
  store i64 %3, ptr %9, align 8
  %10 = load ptr, ptr %6, align 8
  %11 = load ptr, ptr %7, align 8
  %12 = call noundef zeroext i1 @_ZL13parse_integerImEbPKcPT_(ptr noundef %10, ptr noundef %11)
  br i1 %12, label %14, label %13

13:                                               ; preds = %4
  store i32 -3, ptr %5, align 4
  br label %20

14:                                               ; preds = %4
  %15 = load ptr, ptr %7, align 8
  %16 = load i64, ptr %15, align 8
  %17 = load i64, ptr %8, align 8
  %18 = load i64, ptr %9, align 8
  %19 = call noundef i32 @_ZN9Arguments17check_memory_sizeEmmm(i64 noundef %16, i64 noundef %17, i64 noundef %18)
  store i32 %19, ptr %5, align 4
  br label %20

20:                                               ; preds = %14, %13
  %21 = load i32, ptr %5, align 4
  ret i32 %21
}

; Function Attrs: mustprogress nounwind uwtable
define linkonce_odr hidden noundef ptr @_ZNK12JVMFlagLimit4castIlEEPK17JVMTypedFlagLimitIT_Ev(ptr noundef nonnull align 2 dereferenceable(4) %0) #1 comdat align 2 {
  %2 = alloca ptr, align 8
  store ptr %0, ptr %2, align 8
  %3 = load ptr, ptr %2, align 8
  ret ptr %3
}

; Function Attrs: mustprogress nounwind uwtable
define linkonce_odr hidden noundef ptr @_ZN12JVMFlagLimit12get_range_atE12JVMFlagsEnum(i32 noundef %0) #1 comdat align 2 {
  %2 = alloca i32, align 4
  store i32 %0, ptr %2, align 4
  %3 = load i32, ptr %2, align 4
  %4 = call noundef ptr @_ZN12JVMFlagLimit11get_kind_atE12JVMFlagsEnumi(i32 noundef %3, i32 noundef 1)
  ret ptr %4
}

; Function Attrs: mustprogress nounwind uwtable
define hidden noundef i32 @_ZN9Arguments9parse_xssEPK12JavaVMOptionPKcPl(ptr noundef %0, ptr noundef %1, ptr noundef %2) #1 align 2 {
  %4 = alloca i32, align 4
  %5 = alloca ptr, align 8
  %6 = alloca ptr, align 8
  %7 = alloca ptr, align 8
  %8 = alloca i64, align 8
  %9 = alloca i64, align 8
  %10 = alloca ptr, align 8
  %11 = alloca i64, align 8
  %12 = alloca i64, align 8
  %13 = alloca i64, align 8
  %14 = alloca i32, align 4
  %15 = alloca i8, align 1
  %16 = alloca i64, align 8
  %17 = alloca i64, align 8
  %18 = alloca i64, align 8
  store ptr %0, ptr %5, align 8
  store ptr %1, ptr %6, align 8
  store ptr %2, ptr %7, align 8
  store i64 0, ptr %8, align 8
  store i64 1048576, ptr %9, align 8
  %19 = call noundef ptr @_ZN12JVMFlagLimit12get_range_atE12JVMFlagsEnum(i32 noundef 801)
  %20 = call noundef ptr @_ZNK12JVMFlagLimit4castIlEEPK17JVMTypedFlagLimitIT_Ev(ptr noundef nonnull align 2 dereferenceable(4) %19)
  store ptr %20, ptr %10, align 8
  store i64 0, ptr %11, align 8
  store i64 1073741824, ptr %12, align 8
  store i64 0, ptr %13, align 8
  %21 = load ptr, ptr %6, align 8
  %22 = call noundef i32 @_ZN9Arguments17parse_memory_sizeEPKcPmmm(ptr noundef %21, ptr noundef %13, i64 noundef 0, i64 noundef 1073741824)
  store i32 %22, ptr %14, align 4
  %23 = load i32, ptr %14, align 4
  %24 = icmp ne i32 %23, 0
  br i1 %24, label %25, label %39

25:                                               ; preds = %3
  %26 = load ptr, ptr %5, align 8
  %27 = icmp eq ptr %26, null
  %28 = zext i1 %27 to i8
  store i8 %28, ptr %15, align 1
  %29 = load i8, ptr %15, align 1
  %30 = trunc i8 %29 to i1
  br i1 %30, label %38, label %31

31:                                               ; preds = %25
  %32 = call noundef ptr @_ZN13defaultStream12error_streamEv()
  %33 = load ptr, ptr %5, align 8
  %34 = getelementptr inbounds %struct.JavaVMOption, ptr %33, i32 0, i32 0
  %35 = load ptr, ptr %34, align 8
  %36 = call i32 (ptr, ptr, ...) @jio_fprintf(ptr noundef %32, ptr noundef @.str.118, ptr noundef %35)
  %37 = load i32, ptr %14, align 4
  call void @_ZN9Arguments20describe_range_errorENS_9ArgsRangeE(i32 noundef %37)
  br label %38

38:                                               ; preds = %31, %25
  store i32 -6, ptr %4, align 4
  br label %50

39:                                               ; preds = %3
  %40 = load i64, ptr %13, align 8
  %41 = call noundef i64 @_Z8align_upImmTnNSt9enable_ifIXcvbsr3std11is_integralIT_EE5valueEiE4typeELi0EES1_S1_T0_(i64 noundef %40, i64 noundef 1024)
  store i64 %41, ptr %16, align 8
  %42 = load i64, ptr %16, align 8
  %43 = udiv i64 %42, 1024
  store i64 %43, ptr %17, align 8
  %44 = load i64, ptr %17, align 8
  %45 = mul i64 %44, 1024
  %46 = call noundef i64 @_ZN2os12vm_page_sizeEv()
  %47 = call noundef i64 @_Z8align_upImmTnNSt9enable_ifIXcvbsr3std11is_integralIT_EE5valueEiE4typeELi0EES1_S1_T0_(i64 noundef %45, i64 noundef %46)
  store i64 %47, ptr %18, align 8
  %48 = load i64, ptr %17, align 8
  %49 = load ptr, ptr %7, align 8
  store i64 %48, ptr %49, align 8
  store i32 0, ptr %4, align 4
  br label %50

50:                                               ; preds = %39, %38
  %51 = load i32, ptr %4, align 4
  ret i32 %51
}