; Function Attrs: mustprogress nounwind uwtable
define hidden noundef range(i32 -6, 1) i32 @_ZN9Arguments9parse_xssEPK12JavaVMOptionPKcPl(ptr noundef readonly %0, ptr noundef %1, ptr nocapture noundef writeonly %2) local_unnamed_addr #0 align 2 {
  %4 = alloca i64, align 8
  %5 = load ptr, ptr @_ZN12JVMFlagLimit10flagLimitsE, align 8
  %6 = getelementptr inbounds i8, ptr %5, i64 6408
  %7 = load ptr, ptr %6, align 8
  %.not.i.i = icmp eq ptr %7, null
  br i1 %.not.i.i, label %_ZN12JVMFlagLimit12get_range_atE12JVMFlagsEnum.exit, label %8

8:                                                ; preds = %3
  %9 = getelementptr inbounds i8, ptr %7, i64 3
  %10 = load i8, ptr %9, align 1
  %11 = and i8 %10, 1
  %.not7.i.i = icmp eq i8 %11, 0
  br i1 %.not7.i.i, label %_ZN12JVMFlagLimit12get_range_atE12JVMFlagsEnum.exit, label %12

12:                                               ; preds = %8
  store i32 801, ptr @_ZN12JVMFlagLimit13_last_checkedE, align 4
  br label %_ZN12JVMFlagLimit12get_range_atE12JVMFlagsEnum.exit

_ZN12JVMFlagLimit12get_range_atE12JVMFlagsEnum.exit: ; preds = %3, %8, %12
  store i64 0, ptr %4, align 8
  %13 = call fastcc noundef zeroext i1 @_ZL13parse_integerImEbPKcPT_(ptr noundef %1, ptr noundef nonnull %4)
  %14 = load i64, ptr %4, align 8
  %15 = icmp ult i64 %14, 1073741825
  %or.cond = select i1 %13, i1 %15, i1 false
  br i1 %or.cond, label %32, label %_ZN9Arguments17parse_memory_sizeEPKcPmmm.exit.thread

_ZN9Arguments17parse_memory_sizeEPKcPmmm.exit.thread: ; preds = %_ZN12JVMFlagLimit12get_range_atE12JVMFlagsEnum.exit
  %16 = icmp eq ptr %0, null
  br i1 %16, label %_ZN9Arguments20describe_range_errorENS_9ArgsRangeE.exit, label %17

17:                                               ; preds = %_ZN9Arguments17parse_memory_sizeEPKcPmmm.exit.thread
  %18 = load i8, ptr @DisplayVMOutputToStdout, align 1
  %19 = trunc i8 %18 to i1
  %20 = load ptr, ptr @_ZN13defaultStream14_output_streamE, align 8
  %21 = load ptr, ptr @_ZN13defaultStream13_error_streamE, align 8
  %22 = select i1 %19, ptr %20, ptr %21
  %23 = load ptr, ptr %0, align 8
  %24 = tail call i32 (ptr, ptr, ...) @jio_fprintf(ptr noundef %22, ptr noundef nonnull @.str.118, ptr noundef %23) #31
  br i1 %13, label %25, label %_ZN9Arguments20describe_range_errorENS_9ArgsRangeE.exit

25:                                               ; preds = %17
  %26 = load i8, ptr @DisplayVMOutputToStdout, align 1
  %27 = trunc i8 %26 to i1
  %28 = load ptr, ptr @_ZN13defaultStream14_output_streamE, align 8
  %29 = load ptr, ptr @_ZN13defaultStream13_error_streamE, align 8
  %30 = select i1 %27, ptr %28, ptr %29
  %31 = tail call i32 (ptr, ptr, ...) @jio_fprintf(ptr noundef %30, ptr noundef nonnull @.str.60) #31
  br label %_ZN9Arguments20describe_range_errorENS_9ArgsRangeE.exit

32:                                               ; preds = %_ZN12JVMFlagLimit12get_range_atE12JVMFlagsEnum.exit
  %33 = add nuw nsw i64 %14, 1023
  %34 = lshr i64 %33, 10
  store i64 %34, ptr %2, align 8
  br label %_ZN9Arguments20describe_range_errorENS_9ArgsRangeE.exit

_ZN9Arguments20describe_range_errorENS_9ArgsRangeE.exit: ; preds = %17, %25, %_ZN9Arguments17parse_memory_sizeEPKcPmmm.exit.thread, %32
  %.0 = phi i32 [ 0, %32 ], [ -6, %_ZN9Arguments17parse_memory_sizeEPKcPmmm.exit.thread ], [ -6, %17 ], [ -6, %25 ]
  ret i32 %.0
}